target datalayout = "e-m:e-p270:32:32-p271:32:32-p272:64:64-i64:64-i128:128-f80:128-n8:16:32:64-S128"
target triple = "x86_64-pc-linux-gnu"

%struct.H5VL_loc_params_t = type { i32, i32, %union.anon }
%union.anon = type { %struct.H5VL_loc_by_idx }
%struct.H5VL_loc_by_idx = type { ptr, i32, i32, i64, i64 }
%struct.H5VL_group_get_args_t = type { i32, %union.anon.0 }
%union.anon.0 = type { %struct.H5VL_group_get_info_args_t }
%struct.H5VL_group_get_info_args_t = type { %struct.H5VL_loc_params_t, ptr }

@H5_libterm_g = external global i8, align 1
@.str = private unnamed_addr constant [97 x i8] c"generated/home/dtcxzyw/WorkSpace/Projects/compilers/llvm-opt-benchmark/bench/hdf5/hdf5/src/H5G.c\00", align 1
@H5G_init_g = external global i8, align 1
@H5E_CANTSET_g = external global i64, align 8
@H5E_SYM_g = external global i64, align 8
@H5E_ARGS_g = external global i64, align 8
@H5P_LST_DATASET_XFER_ID_g = external global i64, align 8
@H5E_CANTGET_g = external global i64, align 8
@H5E_BADVALUE_g = external global i64, align 8
@.str.53 = private unnamed_addr constant [34 x i8] c"can't set object access arguments\00", align 1
@__func__.H5G__get_info_api_common = private unnamed_addr constant [25 x i8] c"H5G__get_info_api_common\00", align 1
@.str.58 = private unnamed_addr constant [27 x i8] c"invalid group (or file) ID\00", align 1
@.str.59 = private unnamed_addr constant [36 x i8] c"group_info parameter cannot be NULL\00", align 1
@.str.60 = private unnamed_addr constant [25 x i8] c"unable to get group info\00", align 1

; Function Attrs: nounwind uwtable
define internal i32 @H5G__get_info_api_common(i64 noundef %0, ptr noundef %1, ptr noundef %2, ptr noundef %3) #0 {
  %5 = alloca i64, align 8
  %6 = alloca ptr, align 8
  %7 = alloca ptr, align 8
  %8 = alloca ptr, align 8
  %9 = alloca ptr, align 8
  %10 = alloca ptr, align 8
  %11 = alloca %struct.H5VL_group_get_args_t, align 8
  %12 = alloca i32, align 4
  %13 = alloca i32, align 4
  %14 = alloca i8, align 1
  store i64 %0, ptr %5, align 8, !tbaa !3
  store ptr %1, ptr %6, align 8, !tbaa !27
  store ptr %2, ptr %7, align 8, !tbaa !14
  store ptr %3, ptr %8, align 8, !tbaa !15
  call void @llvm.lifetime.start.p0(i64 8, ptr %9) #5
  store ptr null, ptr %9, align 8, !tbaa !17
  call void @llvm.lifetime.start.p0(i64 8, ptr %10) #5
  %15 = load ptr, ptr %8, align 8, !tbaa !15
  %16 = icmp ne ptr %15, null
  br i1 %16, label %17, label %19

17:                                               ; preds = %4
  %18 = load ptr, ptr %8, align 8, !tbaa !15
  br label %20

19:                                               ; preds = %4
  br label %20

20:                                               ; preds = %19, %17
  %21 = phi ptr [ %18, %17 ], [ %9, %19 ]
  store ptr %21, ptr %10, align 8, !tbaa !15
  call void @llvm.lifetime.start.p0(i64 56, ptr %11) #5
  call void @llvm.lifetime.start.p0(i64 4, ptr %12) #5
  call void @llvm.lifetime.start.p0(i64 4, ptr %13) #5
  store i32 0, ptr %13, align 4, !tbaa !20
  call void @llvm.lifetime.start.p0(i64 1, ptr %14) #5
  store i8 0, ptr %14, align 1, !tbaa !10
  %22 = load i8, ptr @H5G_init_g, align 1, !tbaa !10, !range !12, !noundef !13
  %23 = trunc i8 %22 to i1
  br i1 %23, label %28, label %24

24:                                               ; preds = %20
  %25 = load i8, ptr @H5_libterm_g, align 1, !tbaa !10, !range !12, !noundef !13
  %26 = trunc i8 %25 to i1
  %27 = xor i1 %26, true
  br label %28

28:                                               ; preds = %24, %20
  %29 = phi i1 [ true, %20 ], [ %27, %24 ]
  %30 = xor i1 %29, true
  %31 = xor i1 %30, true
  %32 = zext i1 %31 to i32
  %33 = sext i32 %32 to i64
  %34 = call i64 @llvm.expect.i64(i64 %33, i64 1)
  %35 = icmp ne i64 %34, 0
  br i1 %35, label %36, label %143

36:                                               ; preds = %28
  %37 = load i64, ptr %5, align 8, !tbaa !3
  %38 = call i32 @H5I_get_type(i64 noundef %37)
  store i32 %38, ptr %12, align 4, !tbaa !20
  %39 = load i32, ptr %12, align 4, !tbaa !20
  %40 = icmp eq i32 2, %39
  br i1 %40, label %63, label %41

41:                                               ; preds = %36
  %42 = load i32, ptr %12, align 4, !tbaa !20
  %43 = icmp eq i32 1, %42
  br i1 %43, label %63, label %44

44:                                               ; preds = %41
  br label %45

45:                                               ; preds = %44
  br label %46

46:                                               ; preds = %45
  br label %47

47:                                               ; preds = %46
  %48 = load i64, ptr @H5E_ARGS_g, align 8, !tbaa !3
  %49 = load i64, ptr @H5E_BADVALUE_g, align 8, !tbaa !3
  %50 = call i32 (ptr, ptr, i32, i64, i64, ptr, ...) @H5E_printf_stack(ptr noundef @.str, ptr noundef @__func__.H5G__get_info_api_common, i32 noundef 554, i64 noundef %48, i64 noundef %49, ptr noundef @.str.58)
  br label %51

51:                                               ; preds = %47
  br label %52

52:                                               ; preds = %51
  store i8 1, ptr %14, align 1, !tbaa !10
  %53 = load i8, ptr %14, align 1, !tbaa !10, !range !12, !noundef !13
  %54 = trunc i8 %53 to i1
  %55 = zext i1 %54 to i8
  store i8 %55, ptr %14, align 1, !tbaa !10
  br label %56

56:                                               ; preds = %52
  br label %57

57:                                               ; preds = %56
  br label %58

58:                                               ; preds = %57
  store i32 -1, ptr %13, align 4, !tbaa !20
  br label %142

59:                                               ; No predecessors!
  br label %60

60:                                               ; preds = %59
  br label %61

61:                                               ; preds = %60
  br label %62

62:                                               ; preds = %61
  br label %63

63:                                               ; preds = %62, %41, %36
  %64 = load ptr, ptr %6, align 8, !tbaa !27
  %65 = icmp ne ptr %64, null
  br i1 %65, label %85, label %66

66:                                               ; preds = %63
  br label %67

67:                                               ; preds = %66
  br label %68

68:                                               ; preds = %67
  br label %69

69:                                               ; preds = %68
  %70 = load i64, ptr @H5E_ARGS_g, align 8, !tbaa !3
  %71 = load i64, ptr @H5E_BADVALUE_g, align 8, !tbaa !3
  %72 = call i32 (ptr, ptr, i32, i64, i64, ptr, ...) @H5E_printf_stack(ptr noundef @.str, ptr noundef @__func__.H5G__get_info_api_common, i32 noundef 556, i64 noundef %70, i64 noundef %71, ptr noundef @.str.59)
  br label %73

73:                                               ; preds = %69
  br label %74

74:                                               ; preds = %73
  store i8 1, ptr %14, align 1, !tbaa !10
  %75 = load i8, ptr %14, align 1, !tbaa !10, !range !12, !noundef !13
  %76 = trunc i8 %75 to i1
  %77 = zext i1 %76 to i8
  store i8 %77, ptr %14, align 1, !tbaa !10
  br label %78

78:                                               ; preds = %74
  br label %79

79:                                               ; preds = %78
  br label %80

80:                                               ; preds = %79
  store i32 -1, ptr %13, align 4, !tbaa !20
  br label %142

81:                                               ; No predecessors!
  br label %82

82:                                               ; preds = %81
  br label %83

83:                                               ; preds = %82
  br label %84

84:                                               ; preds = %83
  br label %85

85:                                               ; preds = %84, %63
  %86 = getelementptr inbounds nuw %struct.H5VL_group_get_args_t, ptr %11, i32 0, i32 0
  store i32 1, ptr %86, align 8, !tbaa !25
  %87 = load i64, ptr %5, align 8, !tbaa !3
  %88 = load ptr, ptr %10, align 8, !tbaa !15
  %89 = getelementptr inbounds nuw %struct.H5VL_group_get_args_t, ptr %11, i32 0, i32 1
  %90 = getelementptr inbounds nuw %struct.H5VL_group_get_info_args_t, ptr %89, i32 0, i32 0
  %91 = call i32 @H5VL_setup_self_args(i64 noundef %87, ptr noundef %88, ptr noundef %90)
  %92 = icmp slt i32 %91, 0
  br i1 %92, label %93, label %112

93:                                               ; preds = %85
  br label %94

94:                                               ; preds = %93
  br label %95

95:                                               ; preds = %94
  br label %96

96:                                               ; preds = %95
  %97 = load i64, ptr @H5E_SYM_g, align 8, !tbaa !3
  %98 = load i64, ptr @H5E_CANTSET_g, align 8, !tbaa !3
  %99 = call i32 (ptr, ptr, i32, i64, i64, ptr, ...) @H5E_printf_stack(ptr noundef @.str, ptr noundef @__func__.H5G__get_info_api_common, i32 noundef 561, i64 noundef %97, i64 noundef %98, ptr noundef @.str.53)
  br label %100

100:                                              ; preds = %96
  br label %101

101:                                              ; preds = %100
  store i8 1, ptr %14, align 1, !tbaa !10
  %102 = load i8, ptr %14, align 1, !tbaa !10, !range !12, !noundef !13
  %103 = trunc i8 %102 to i1
  %104 = zext i1 %103 to i8
  store i8 %104, ptr %14, align 1, !tbaa !10
  br label %105

105:                                              ; preds = %101
  br label %106

106:                                              ; preds = %105
  br label %107

107:                                              ; preds = %106
  store i32 -1, ptr %13, align 4, !tbaa !20
  br label %142

108:                                              ; No predecessors!
  br label %109

109:                                              ; preds = %108
  br label %110

110:                                              ; preds = %109
  br label %111

111:                                              ; preds = %110
  br label %112

112:                                              ; preds = %111, %85
  %113 = load ptr, ptr %6, align 8, !tbaa !27
  %114 = getelementptr inbounds nuw %struct.H5VL_group_get_args_t, ptr %11, i32 0, i32 1
  %115 = getelementptr inbounds nuw %struct.H5VL_group_get_info_args_t, ptr %114, i32 0, i32 1
  store ptr %113, ptr %115, align 8, !tbaa !19
  %116 = load ptr, ptr %10, align 8, !tbaa !15
  %117 = load ptr, ptr %116, align 8, !tbaa !17
  %118 = load i64, ptr @H5P_LST_DATASET_XFER_ID_g, align 8, !tbaa !3
  %119 = load ptr, ptr %7, align 8, !tbaa !14
  %120 = call i32 @H5VL_group_get(ptr noundef %117, ptr noundef %11, i64 noundef %118, ptr noundef %119)
  %121 = icmp slt i32 %120, 0
  br i1 %121, label %122, label %141

122:                                              ; preds = %112
  br label %123

123:                                              ; preds = %122
  br label %124

124:                                              ; preds = %123
  br label %125

125:                                              ; preds = %124
  %126 = load i64, ptr @H5E_SYM_g, align 8, !tbaa !3
  %127 = load i64, ptr @H5E_CANTGET_g, align 8, !tbaa !3
  %128 = call i32 (ptr, ptr, i32, i64, i64, ptr, ...) @H5E_printf_stack(ptr noundef @.str, ptr noundef @__func__.H5G__get_info_api_common, i32 noundef 566, i64 noundef %126, i64 noundef %127, ptr noundef @.str.60)
  br label %129

129:                                              ; preds = %125
  br label %130

130:                                              ; preds = %129
  store i8 1, ptr %14, align 1, !tbaa !10
  %131 = load i8, ptr %14, align 1, !tbaa !10, !range !12, !noundef !13
  %132 = trunc i8 %131 to i1
  %133 = zext i1 %132 to i8
  store i8 %133, ptr %14, align 1, !tbaa !10
  br label %134

134:                                              ; preds = %130
  br label %135

135:                                              ; preds = %134
  br label %136

136:                                              ; preds = %135
  store i32 -1, ptr %13, align 4, !tbaa !20
  br label %142

137:                                              ; No predecessors!
  br label %138

138:                                              ; preds = %137
  br label %139

139:                                              ; preds = %138
  br label %140

140:                                              ; preds = %139
  br label %141

141:                                              ; preds = %140, %112
  br label %142

142:                                              ; preds = %141, %136, %107, %80, %58
  br label %143

143:                                              ; preds = %142, %28
  %144 = load i32, ptr %13, align 4, !tbaa !20
  call void @llvm.lifetime.end.p0(i64 1, ptr %14) #5
  call void @llvm.lifetime.end.p0(i64 4, ptr %13) #5
  call void @llvm.lifetime.end.p0(i64 4, ptr %12) #5
  call void @llvm.lifetime.end.p0(i64 56, ptr %11) #5
  call void @llvm.lifetime.end.p0(i64 8, ptr %10) #5
  call void @llvm.lifetime.end.p0(i64 8, ptr %9) #5
  ret i32 %144
}