; Function Attrs: nounwind uwtable
define internal fastcc range(i32 -1, 1) i32 @H5G__get_info_api_common(i64 noundef %0, ptr noundef %1, ptr noundef %2, ptr noundef %3) unnamed_addr #0 {
  %5 = alloca ptr, align 8
  %6 = alloca %struct.H5VL_group_get_args_t, align 8
  call void @llvm.lifetime.start.p0(i64 8, ptr nonnull %5) #4
  store ptr null, ptr %5, align 8, !tbaa !15
  %.not = icmp eq ptr %3, null
  %7 = select i1 %.not, ptr %5, ptr %3
  call void @llvm.lifetime.start.p0(i64 56, ptr nonnull %6) #4
  %8 = load i8, ptr @H5G_init_g, align 1, !tbaa !3, !range !7, !noundef !8
  %9 = trunc nuw i8 %8 to i1
  %10 = load i8, ptr @H5_libterm_g, align 1, !range !7
  %11 = trunc nuw i8 %10 to i1
  %12 = xor i1 %11, true
  %13 = select i1 %9, i1 true, i1 %12
  br i1 %13, label %14, label %44, !prof !9

14:                                               ; preds = %4
  %15 = tail call i32 @H5I_get_type(i64 noundef %0) #4
  %16 = add i32 %15, -1
  %or.cond = icmp ult i32 %16, 2
  br i1 %or.cond, label %21, label %17

17:                                               ; preds = %14
  %18 = load i64, ptr @H5E_ARGS_g, align 8, !tbaa !11
  %19 = load i64, ptr @H5E_BADVALUE_g, align 8, !tbaa !11
  %20 = tail call i32 (ptr, ptr, i32, i64, i64, ptr, ...) @H5E_printf_stack(ptr noundef nonnull @.str, ptr noundef nonnull @__func__.H5G__get_info_api_common, i32 noundef 554, i64 noundef %18, i64 noundef %19, ptr noundef nonnull @.str.58) #4
  br label %44

21:                                               ; preds = %14
  %.not17 = icmp eq ptr %1, null
  br i1 %.not17, label %22, label %26

22:                                               ; preds = %21
  %23 = load i64, ptr @H5E_ARGS_g, align 8, !tbaa !11
  %24 = load i64, ptr @H5E_BADVALUE_g, align 8, !tbaa !11
  %25 = tail call i32 (ptr, ptr, i32, i64, i64, ptr, ...) @H5E_printf_stack(ptr noundef nonnull @.str, ptr noundef nonnull @__func__.H5G__get_info_api_common, i32 noundef 556, i64 noundef %23, i64 noundef %24, ptr noundef nonnull @.str.59) #4
  br label %44

26:                                               ; preds = %21
  store i32 1, ptr %6, align 8, !tbaa !25
  %27 = getelementptr inbounds nuw i8, ptr %6, i64 8
  %28 = call i32 @H5VL_setup_self_args(i64 noundef %0, ptr noundef nonnull %7, ptr noundef nonnull %27) #4
  %29 = icmp slt i32 %28, 0
  br i1 %29, label %30, label %34

30:                                               ; preds = %26
  %31 = load i64, ptr @H5E_SYM_g, align 8, !tbaa !11
  %32 = load i64, ptr @H5E_CANTSET_g, align 8, !tbaa !11
  %33 = call i32 (ptr, ptr, i32, i64, i64, ptr, ...) @H5E_printf_stack(ptr noundef nonnull @.str, ptr noundef nonnull @__func__.H5G__get_info_api_common, i32 noundef 561, i64 noundef %31, i64 noundef %32, ptr noundef nonnull @.str.53) #4
  br label %44

34:                                               ; preds = %26
  %35 = getelementptr inbounds nuw i8, ptr %6, i64 48
  store ptr %1, ptr %35, align 8, !tbaa !18
  %36 = load ptr, ptr %7, align 8, !tbaa !15
  %37 = load i64, ptr @H5P_LST_DATASET_XFER_ID_g, align 8, !tbaa !11
  %38 = call i32 @H5VL_group_get(ptr noundef %36, ptr noundef nonnull %6, i64 noundef %37, ptr noundef %2) #4
  %39 = icmp slt i32 %38, 0
  br i1 %39, label %40, label %44

40:                                               ; preds = %34
  %41 = load i64, ptr @H5E_SYM_g, align 8, !tbaa !11
  %42 = load i64, ptr @H5E_CANTGET_g, align 8, !tbaa !11
  %43 = call i32 (ptr, ptr, i32, i64, i64, ptr, ...) @H5E_printf_stack(ptr noundef nonnull @.str, ptr noundef nonnull @__func__.H5G__get_info_api_common, i32 noundef 566, i64 noundef %41, i64 noundef %42, ptr noundef nonnull @.str.60) #4
  br label %44

44:                                               ; preds = %17, %22, %30, %40, %34, %4
  %.0 = phi i32 [ -1, %30 ], [ -1, %40 ], [ 0, %34 ], [ -1, %22 ], [ -1, %17 ], [ 0, %4 ]
  call void @llvm.lifetime.end.p0(i64 56, ptr nonnull %6) #4
  call void @llvm.lifetime.end.p0(i64 8, ptr nonnull %5) #4
  ret i32 %.0
}